target datalayout = "e-m:e-p270:32:32-p271:32:32-p272:64:64-i64:64-i128:128-f80:128-n8:16:32:64-S128"
target triple = "x86_64-pc-linux-gnu"

%struct.mbedtls_ecp_group = type { i32, %struct.mbedtls_mpi, %struct.mbedtls_mpi, %struct.mbedtls_mpi, %struct.mbedtls_ecp_point, %struct.mbedtls_mpi, i64, i64, i32, ptr, ptr, ptr, ptr, ptr, i64 }
%struct.mbedtls_ecp_point = type { %struct.mbedtls_mpi, %struct.mbedtls_mpi, %struct.mbedtls_mpi }
%struct.mbedtls_mpi = type { ptr, i16, i16 }

; Function Attrs: nounwind uwtable
define hidden i32 @mbedtls_ecp_set_zero(ptr noundef %0) #0 {
  %2 = alloca ptr, align 8
  %3 = alloca i32, align 4
  store ptr %0, ptr %2, align 8, !tbaa !34
  call void @llvm.lifetime.start.p0(i64 4, ptr %3) #11
  store i32 -110, ptr %3, align 4, !tbaa !3
  br label %4

4:                                                ; preds = %1
  %5 = load ptr, ptr %2, align 8, !tbaa !34
  %6 = getelementptr inbounds nuw %struct.mbedtls_ecp_point, ptr %5, i32 0, i32 0
  %7 = call i32 @mbedtls_mpi_lset(ptr noundef %6, i64 noundef 1)
  store i32 %7, ptr %3, align 4, !tbaa !3
  %8 = icmp ne i32 %7, 0
  br i1 %8, label %9, label %10

9:                                                ; preds = %4
  br label %31

10:                                               ; preds = %4
  br label %11

11:                                               ; preds = %10
  br label %12

12:                                               ; preds = %11
  br label %13

13:                                               ; preds = %12
  %14 = load ptr, ptr %2, align 8, !tbaa !34
  %15 = getelementptr inbounds nuw %struct.mbedtls_ecp_point, ptr %14, i32 0, i32 1
  %16 = call i32 @mbedtls_mpi_lset(ptr noundef %15, i64 noundef 1)
  store i32 %16, ptr %3, align 4, !tbaa !3
  %17 = icmp ne i32 %16, 0
  br i1 %17, label %18, label %19

18:                                               ; preds = %13
  br label %31

19:                                               ; preds = %13
  br label %20

20:                                               ; preds = %19
  br label %21

21:                                               ; preds = %20
  br label %22

22:                                               ; preds = %21
  %23 = load ptr, ptr %2, align 8, !tbaa !34
  %24 = getelementptr inbounds nuw %struct.mbedtls_ecp_point, ptr %23, i32 0, i32 2
  %25 = call i32 @mbedtls_mpi_lset(ptr noundef %24, i64 noundef 0)
  store i32 %25, ptr %3, align 4, !tbaa !3
  %26 = icmp ne i32 %25, 0
  br i1 %26, label %27, label %28

27:                                               ; preds = %22
  br label %31

28:                                               ; preds = %22
  br label %29

29:                                               ; preds = %28
  br label %30

30:                                               ; preds = %29
  br label %31

31:                                               ; preds = %30, %27, %18, %9
  %32 = load i32, ptr %3, align 4, !tbaa !3
  call void @llvm.lifetime.end.p0(i64 4, ptr %3) #11
  ret i32 %32
}

; Function Attrs: nounwind uwtable
define hidden i32 @mbedtls_ecp_get_type(ptr noundef %0) #0 {
  %2 = alloca i32, align 4
  %3 = alloca ptr, align 8
  store ptr %0, ptr %3, align 8, !tbaa !25
  %4 = load ptr, ptr %3, align 8, !tbaa !25
  %5 = getelementptr inbounds nuw %struct.mbedtls_ecp_group, ptr %4, i32 0, i32 4
  %6 = getelementptr inbounds nuw %struct.mbedtls_ecp_point, ptr %5, i32 0, i32 0
  %7 = getelementptr inbounds nuw %struct.mbedtls_mpi, ptr %6, i32 0, i32 0
  %8 = load ptr, ptr %7, align 8, !tbaa !27
  %9 = icmp eq ptr %8, null
  br i1 %9, label %10, label %11

10:                                               ; preds = %1
  store i32 0, ptr %2, align 4
  br label %20

11:                                               ; preds = %1
  %12 = load ptr, ptr %3, align 8, !tbaa !25
  %13 = getelementptr inbounds nuw %struct.mbedtls_ecp_group, ptr %12, i32 0, i32 4
  %14 = getelementptr inbounds nuw %struct.mbedtls_ecp_point, ptr %13, i32 0, i32 1
  %15 = getelementptr inbounds nuw %struct.mbedtls_mpi, ptr %14, i32 0, i32 0
  %16 = load ptr, ptr %15, align 8, !tbaa !33
  %17 = icmp eq ptr %16, null
  br i1 %17, label %18, label %19

18:                                               ; preds = %11
  store i32 2, ptr %2, align 4
  br label %20

19:                                               ; preds = %11
  store i32 1, ptr %2, align 4
  br label %20

20:                                               ; preds = %19, %18, %10
  %21 = load i32, ptr %2, align 4
  ret i32 %21
}

; Function Attrs: nounwind uwtable
define hidden i32 @mbedtls_ecp_point_read_binary(ptr noundef %0, ptr noundef %1, ptr noundef %2, i64 noundef %3) #0 {
  %5 = alloca i32, align 4
  %6 = alloca ptr, align 8
  %7 = alloca ptr, align 8
  %8 = alloca ptr, align 8
  %9 = alloca i64, align 8
  %10 = alloca i32, align 4
  %11 = alloca i64, align 8
  %12 = alloca i32, align 4
  store ptr %0, ptr %6, align 8, !tbaa !25
  store ptr %1, ptr %7, align 8, !tbaa !34
  store ptr %2, ptr %8, align 8, !tbaa !22
  store i64 %3, ptr %9, align 8, !tbaa !7
  call void @llvm.lifetime.start.p0(i64 4, ptr %10) #11
  store i32 -20096, ptr %10, align 4, !tbaa !3
  call void @llvm.lifetime.start.p0(i64 8, ptr %11) #11
  %13 = load i64, ptr %9, align 8, !tbaa !7
  %14 = icmp ult i64 %13, 1
  br i1 %14, label %15, label %16

15:                                               ; preds = %4
  store i32 -20352, ptr %5, align 4
  store i32 1, ptr %12, align 4
  br label %169

16:                                               ; preds = %4
  %17 = load ptr, ptr %6, align 8, !tbaa !25
  %18 = getelementptr inbounds nuw %struct.mbedtls_ecp_group, ptr %17, i32 0, i32 1
  %19 = call i64 @mbedtls_mpi_size(ptr noundef %18)
  store i64 %19, ptr %11, align 8, !tbaa !7
  %20 = load ptr, ptr %6, align 8, !tbaa !25
  %21 = call i32 @mbedtls_ecp_get_type(ptr noundef %20)
  %22 = icmp eq i32 %21, 2
  br i1 %22, label %23, label %69

23:                                               ; preds = %16
  %24 = load i64, ptr %11, align 8, !tbaa !7
  %25 = load i64, ptr %9, align 8, !tbaa !7
  %26 = icmp ne i64 %24, %25
  br i1 %26, label %27, label %28

27:                                               ; preds = %23
  store i32 -20352, ptr %5, align 4
  store i32 1, ptr %12, align 4
  br label %169

28:                                               ; preds = %23
  br label %29

29:                                               ; preds = %28
  %30 = load ptr, ptr %7, align 8, !tbaa !34
  %31 = getelementptr inbounds nuw %struct.mbedtls_ecp_point, ptr %30, i32 0, i32 0
  %32 = load ptr, ptr %8, align 8, !tbaa !22
  %33 = load i64, ptr %11, align 8, !tbaa !7
  %34 = call i32 @mbedtls_mpi_read_binary_le(ptr noundef %31, ptr noundef %32, i64 noundef %33)
  store i32 %34, ptr %10, align 4, !tbaa !3
  %35 = icmp ne i32 %34, 0
  br i1 %35, label %36, label %37

36:                                               ; preds = %29
  br label %167

37:                                               ; preds = %29
  br label %38

38:                                               ; preds = %37
  br label %39

39:                                               ; preds = %38
  %40 = load ptr, ptr %7, align 8, !tbaa !34
  %41 = getelementptr inbounds nuw %struct.mbedtls_ecp_point, ptr %40, i32 0, i32 1
  call void @mbedtls_mpi_free(ptr noundef %41)
  %42 = load ptr, ptr %6, align 8, !tbaa !25
  %43 = getelementptr inbounds nuw %struct.mbedtls_ecp_group, ptr %42, i32 0, i32 0
  %44 = load i32, ptr %43, align 8, !tbaa !35
  %45 = icmp eq i32 %44, 9
  br i1 %45, label %46, label %59

46:                                               ; preds = %39
  br label %47

47:                                               ; preds = %46
  %48 = load ptr, ptr %7, align 8, !tbaa !34
  %49 = getelementptr inbounds nuw %struct.mbedtls_ecp_point, ptr %48, i32 0, i32 0
  %50 = load i64, ptr %11, align 8, !tbaa !7
  %51 = mul i64 %50, 8
  %52 = sub i64 %51, 1
  %53 = call i32 @mbedtls_mpi_set_bit(ptr noundef %49, i64 noundef %52, i8 noundef zeroext 0)
  store i32 %53, ptr %10, align 4, !tbaa !3
  %54 = icmp ne i32 %53, 0
  br i1 %54, label %55, label %56

55:                                               ; preds = %47
  br label %167

56:                                               ; preds = %47
  br label %57

57:                                               ; preds = %56
  br label %58

58:                                               ; preds = %57
  br label %59

59:                                               ; preds = %58, %39
  br label %60

60:                                               ; preds = %59
  %61 = load ptr, ptr %7, align 8, !tbaa !34
  %62 = getelementptr inbounds nuw %struct.mbedtls_ecp_point, ptr %61, i32 0, i32 2
  %63 = call i32 @mbedtls_mpi_lset(ptr noundef %62, i64 noundef 1)
  store i32 %63, ptr %10, align 4, !tbaa !3
  %64 = icmp ne i32 %63, 0
  br i1 %64, label %65, label %66

65:                                               ; preds = %60
  br label %167

66:                                               ; preds = %60
  br label %67

67:                                               ; preds = %66
  br label %68

68:                                               ; preds = %67
  br label %69

69:                                               ; preds = %68, %16
  %70 = load ptr, ptr %6, align 8, !tbaa !25
  %71 = call i32 @mbedtls_ecp_get_type(ptr noundef %70)
  %72 = icmp eq i32 %71, 1
  br i1 %72, label %73, label %166

73:                                               ; preds = %69
  %74 = load ptr, ptr %8, align 8, !tbaa !22
  %75 = getelementptr inbounds i8, ptr %74, i64 0
  %76 = load i8, ptr %75, align 1, !tbaa !49
  %77 = zext i8 %76 to i32
  %78 = icmp eq i32 %77, 0
  br i1 %78, label %79, label %86

79:                                               ; preds = %73
  %80 = load i64, ptr %9, align 8, !tbaa !7
  %81 = icmp eq i64 %80, 1
  br i1 %81, label %82, label %85

82:                                               ; preds = %79
  %83 = load ptr, ptr %7, align 8, !tbaa !34
  %84 = call i32 @mbedtls_ecp_set_zero(ptr noundef %83)
  store i32 %84, ptr %5, align 4
  store i32 1, ptr %12, align 4
  br label %169

85:                                               ; preds = %79
  store i32 -20352, ptr %5, align 4
  store i32 1, ptr %12, align 4
  br label %169

86:                                               ; preds = %73
  %87 = load i64, ptr %9, align 8, !tbaa !7
  %88 = load i64, ptr %11, align 8, !tbaa !7
  %89 = add i64 1, %88
  %90 = icmp ult i64 %87, %89
  br i1 %90, label %91, label %92

91:                                               ; preds = %86
  store i32 -20352, ptr %5, align 4
  store i32 1, ptr %12, align 4
  br label %169

92:                                               ; preds = %86
  br label %93

93:                                               ; preds = %92
  %94 = load ptr, ptr %7, align 8, !tbaa !34
  %95 = getelementptr inbounds nuw %struct.mbedtls_ecp_point, ptr %94, i32 0, i32 0
  %96 = load ptr, ptr %8, align 8, !tbaa !22
  %97 = getelementptr inbounds i8, ptr %96, i64 1
  %98 = load i64, ptr %11, align 8, !tbaa !7
  %99 = call i32 @mbedtls_mpi_read_binary(ptr noundef %95, ptr noundef %97, i64 noundef %98)
  store i32 %99, ptr %10, align 4, !tbaa !3
  %100 = icmp ne i32 %99, 0
  br i1 %100, label %101, label %102

101:                                              ; preds = %93
  br label %167

102:                                              ; preds = %93
  br label %103

103:                                              ; preds = %102
  br label %104

104:                                              ; preds = %103
  br label %105

105:                                              ; preds = %104
  %106 = load ptr, ptr %7, align 8, !tbaa !34
  %107 = getelementptr inbounds nuw %struct.mbedtls_ecp_point, ptr %106, i32 0, i32 2
  %108 = call i32 @mbedtls_mpi_lset(ptr noundef %107, i64 noundef 1)
  store i32 %108, ptr %10, align 4, !tbaa !3
  %109 = icmp ne i32 %108, 0
  br i1 %109, label %110, label %111

110:                                              ; preds = %105
  br label %167

111:                                              ; preds = %105
  br label %112

112:                                              ; preds = %111
  br label %113

113:                                              ; preds = %112
  %114 = load ptr, ptr %8, align 8, !tbaa !22
  %115 = getelementptr inbounds i8, ptr %114, i64 0
  %116 = load i8, ptr %115, align 1, !tbaa !49
  %117 = zext i8 %116 to i32
  %118 = icmp eq i32 %117, 4
  br i1 %118, label %119, label %135

119:                                              ; preds = %113
  %120 = load i64, ptr %9, align 8, !tbaa !7
  %121 = load i64, ptr %11, align 8, !tbaa !7
  %122 = mul i64 %121, 2
  %123 = add i64 1, %122
  %124 = icmp ne i64 %120, %123
  br i1 %124, label %125, label %126

125:                                              ; preds = %119
  store i32 -20352, ptr %5, align 4
  store i32 1, ptr %12, align 4
  br label %169

126:                                              ; preds = %119
  %127 = load ptr, ptr %7, align 8, !tbaa !34
  %128 = getelementptr inbounds nuw %struct.mbedtls_ecp_point, ptr %127, i32 0, i32 1
  %129 = load ptr, ptr %8, align 8, !tbaa !22
  %130 = getelementptr inbounds i8, ptr %129, i64 1
  %131 = load i64, ptr %11, align 8, !tbaa !7
  %132 = getelementptr inbounds nuw i8, ptr %130, i64 %131
  %133 = load i64, ptr %11, align 8, !tbaa !7
  %134 = call i32 @mbedtls_mpi_read_binary(ptr noundef %128, ptr noundef %132, i64 noundef %133)
  store i32 %134, ptr %5, align 4
  store i32 1, ptr %12, align 4
  br label %169

135:                                              ; preds = %113
  %136 = load ptr, ptr %8, align 8, !tbaa !22
  %137 = getelementptr inbounds i8, ptr %136, i64 0
  %138 = load i8, ptr %137, align 1, !tbaa !49
  %139 = zext i8 %138 to i32
  %140 = icmp eq i32 %139, 2
  br i1 %140, label %147, label %141

141:                                              ; preds = %135
  %142 = load ptr, ptr %8, align 8, !tbaa !22
  %143 = getelementptr inbounds i8, ptr %142, i64 0
  %144 = load i8, ptr %143, align 1, !tbaa !49
  %145 = zext i8 %144 to i32
  %146 = icmp eq i32 %145, 3
  br i1 %146, label %147, label %165

147:                                              ; preds = %141, %135
  %148 = load i64, ptr %9, align 8, !tbaa !7
  %149 = load i64, ptr %11, align 8, !tbaa !7
  %150 = add i64 1, %149
  %151 = icmp ne i64 %148, %150
  br i1 %151, label %152, label %153

152:                                              ; preds = %147
  store i32 -20352, ptr %5, align 4
  store i32 1, ptr %12, align 4
  br label %169

153:                                              ; preds = %147
  %154 = load ptr, ptr %6, align 8, !tbaa !25
  %155 = load ptr, ptr %7, align 8, !tbaa !34
  %156 = getelementptr inbounds nuw %struct.mbedtls_ecp_point, ptr %155, i32 0, i32 0
  %157 = load ptr, ptr %7, align 8, !tbaa !34
  %158 = getelementptr inbounds nuw %struct.mbedtls_ecp_point, ptr %157, i32 0, i32 1
  %159 = load ptr, ptr %8, align 8, !tbaa !22
  %160 = getelementptr inbounds i8, ptr %159, i64 0
  %161 = load i8, ptr %160, align 1, !tbaa !49
  %162 = zext i8 %161 to i32
  %163 = and i32 %162, 1
  %164 = call i32 @mbedtls_ecp_sw_derive_y(ptr noundef %154, ptr noundef %156, ptr noundef %158, i32 noundef %163)
  store i32 %164, ptr %5, align 4
  store i32 1, ptr %12, align 4
  br label %169

165:                                              ; preds = %141
  store i32 -20352, ptr %5, align 4
  store i32 1, ptr %12, align 4
  br label %169

166:                                              ; preds = %69
  br label %167

167:                                              ; preds = %166, %110, %101, %65, %55, %36
  %168 = load i32, ptr %10, align 4, !tbaa !3
  store i32 %168, ptr %5, align 4
  store i32 1, ptr %12, align 4
  br label %169

169:                                              ; preds = %167, %165, %153, %152, %126, %125, %91, %85, %82, %27, %15
  call void @llvm.lifetime.end.p0(i64 8, ptr %11) #11
  call void @llvm.lifetime.end.p0(i64 4, ptr %10) #11
  %170 = load i32, ptr %5, align 4
  ret i32 %170
}