; Function Attrs: nounwind uwtable
define hidden i32 @mbedtls_ecp_point_read_binary(ptr noundef %0, ptr noundef %1, ptr noundef %2, i64 noundef %3) local_unnamed_addr #7 {
  %5 = icmp eq i64 %3, 0
  br i1 %5, label %mbedtls_ecp_set_zero.exit, label %6

6:                                                ; preds = %4
  %7 = getelementptr inbounds nuw i8, ptr %0, i64 8
  %8 = tail call i64 @mbedtls_mpi_size(ptr noundef nonnull %7) #21
  %9 = getelementptr inbounds nuw i8, ptr %0, i64 56
  %10 = load ptr, ptr %9, align 8, !tbaa !19
  %11 = icmp eq ptr %10, null
  br i1 %11, label %mbedtls_ecp_set_zero.exit, label %12

12:                                               ; preds = %6
  %13 = getelementptr inbounds nuw i8, ptr %0, i64 72
  %14 = load ptr, ptr %13, align 8, !tbaa !26
  %15 = icmp eq ptr %14, null
  br i1 %15, label %mbedtls_ecp_get_type.exit, label %mbedtls_ecp_get_type.exit59

mbedtls_ecp_get_type.exit:                        ; preds = %12
  %.not = icmp eq i64 %8, %3
  br i1 %.not, label %16, label %mbedtls_ecp_set_zero.exit

16:                                               ; preds = %mbedtls_ecp_get_type.exit
  %17 = tail call i32 @mbedtls_mpi_read_binary_le(ptr noundef %1, ptr noundef %2, i64 noundef %3) #21
  %.not50 = icmp eq i32 %17, 0
  br i1 %.not50, label %18, label %mbedtls_ecp_set_zero.exit

18:                                               ; preds = %16
  %19 = getelementptr inbounds nuw i8, ptr %1, i64 16
  tail call void @mbedtls_mpi_free(ptr noundef nonnull %19) #21
  %20 = load i32, ptr %0, align 8, !tbaa !27
  %21 = icmp eq i32 %20, 9
  br i1 %21, label %22, label %26

22:                                               ; preds = %18
  %23 = shl i64 %3, 3
  %24 = add i64 %23, -1
  %25 = tail call i32 @mbedtls_mpi_set_bit(ptr noundef nonnull %1, i64 noundef %24, i8 noundef zeroext 0) #21
  %.not51 = icmp eq i32 %25, 0
  br i1 %.not51, label %26, label %mbedtls_ecp_set_zero.exit

26:                                               ; preds = %18, %22
  %27 = getelementptr inbounds nuw i8, ptr %1, i64 32
  %28 = tail call i32 @mbedtls_mpi_lset(ptr noundef nonnull %27, i64 noundef 1) #21
  %.not52 = icmp eq i32 %28, 0
  br i1 %.not52, label %mbedtls_ecp_get_type.exit.thread, label %mbedtls_ecp_set_zero.exit

mbedtls_ecp_get_type.exit.thread:                 ; preds = %26
  %.pr.pre = load ptr, ptr %9, align 8, !tbaa !19
  %29 = icmp eq ptr %.pr.pre, null
  br i1 %29, label %mbedtls_ecp_set_zero.exit, label %30

30:                                               ; preds = %mbedtls_ecp_get_type.exit.thread
  %.pr = load ptr, ptr %13, align 8, !tbaa !26
  %31 = icmp eq ptr %.pr, null
  br i1 %31, label %mbedtls_ecp_set_zero.exit, label %mbedtls_ecp_get_type.exit59

mbedtls_ecp_get_type.exit59:                      ; preds = %12, %30
  %32 = load i8, ptr %2, align 1, !tbaa !34
  %33 = icmp eq i8 %32, 0
  br i1 %33, label %34, label %44

34:                                               ; preds = %mbedtls_ecp_get_type.exit59
  %35 = icmp eq i64 %3, 1
  br i1 %35, label %36, label %mbedtls_ecp_set_zero.exit

36:                                               ; preds = %34
  %37 = tail call i32 @mbedtls_mpi_lset(ptr noundef %1, i64 noundef 1) #21
  %.not.i = icmp eq i32 %37, 0
  br i1 %.not.i, label %38, label %mbedtls_ecp_set_zero.exit

38:                                               ; preds = %36
  %39 = getelementptr inbounds nuw i8, ptr %1, i64 16
  %40 = tail call i32 @mbedtls_mpi_lset(ptr noundef nonnull %39, i64 noundef 1) #21
  %.not5.i = icmp eq i32 %40, 0
  br i1 %.not5.i, label %41, label %mbedtls_ecp_set_zero.exit

41:                                               ; preds = %38
  %42 = getelementptr inbounds nuw i8, ptr %1, i64 32
  %43 = tail call i32 @mbedtls_mpi_lset(ptr noundef nonnull %42, i64 noundef 0) #21
  br label %mbedtls_ecp_set_zero.exit

44:                                               ; preds = %mbedtls_ecp_get_type.exit59
  %45 = add i64 %8, 1
  %46 = icmp ult i64 %3, %45
  br i1 %46, label %mbedtls_ecp_set_zero.exit, label %47

47:                                               ; preds = %44
  %48 = getelementptr inbounds nuw i8, ptr %2, i64 1
  %49 = tail call i32 @mbedtls_mpi_read_binary(ptr noundef %1, ptr noundef nonnull %48, i64 noundef %8) #21
  %.not53 = icmp eq i32 %49, 0
  br i1 %.not53, label %50, label %mbedtls_ecp_set_zero.exit

50:                                               ; preds = %47
  %51 = getelementptr inbounds nuw i8, ptr %1, i64 32
  %52 = tail call i32 @mbedtls_mpi_lset(ptr noundef nonnull %51, i64 noundef 1) #21
  %.not54 = icmp eq i32 %52, 0
  br i1 %.not54, label %53, label %mbedtls_ecp_set_zero.exit

53:                                               ; preds = %50
  %54 = load i8, ptr %2, align 1, !tbaa !34
  switch i8 %54, label %mbedtls_ecp_set_zero.exit [
    i8 4, label %55
    i8 2, label %62
    i8 3, label %62
  ]

55:                                               ; preds = %53
  %56 = shl i64 %8, 1
  %57 = or disjoint i64 %56, 1
  %.not56 = icmp eq i64 %3, %57
  br i1 %.not56, label %58, label %mbedtls_ecp_set_zero.exit

58:                                               ; preds = %55
  %59 = getelementptr inbounds nuw i8, ptr %1, i64 16
  %60 = getelementptr inbounds nuw i8, ptr %48, i64 %8
  %61 = tail call i32 @mbedtls_mpi_read_binary(ptr noundef nonnull %59, ptr noundef nonnull %60, i64 noundef %8) #21
  br label %mbedtls_ecp_set_zero.exit

62:                                               ; preds = %53, %53
  %.not55 = icmp eq i64 %3, %45
  br i1 %.not55, label %63, label %mbedtls_ecp_set_zero.exit

63:                                               ; preds = %62
  %64 = getelementptr inbounds nuw i8, ptr %1, i64 16
  %65 = and i8 %54, 1
  %66 = zext nneg i8 %65 to i32
  %67 = tail call fastcc i32 @mbedtls_ecp_sw_derive_y(ptr noundef nonnull %0, ptr noundef nonnull %1, ptr noundef nonnull %64, i32 noundef %66)
  br label %mbedtls_ecp_set_zero.exit

mbedtls_ecp_set_zero.exit:                        ; preds = %6, %30, %mbedtls_ecp_get_type.exit.thread, %41, %38, %36, %16, %22, %26, %47, %50, %53, %62, %55, %44, %34, %mbedtls_ecp_get_type.exit, %4, %63, %58
  %.0 = phi i32 [ %61, %58 ], [ %67, %63 ], [ -20352, %4 ], [ -20352, %mbedtls_ecp_get_type.exit ], [ -20352, %34 ], [ -20352, %44 ], [ -20352, %55 ], [ -20352, %62 ], [ -20352, %53 ], [ %17, %16 ], [ %25, %22 ], [ %28, %26 ], [ %49, %47 ], [ %52, %50 ], [ %37, %36 ], [ %40, %38 ], [ %43, %41 ], [ 0, %mbedtls_ecp_get_type.exit.thread ], [ 0, %30 ], [ -20096, %6 ]
  ret i32 %.0
}